; Function Attrs: mustprogress nounwind uwtable
define dso_local void @_ZN5clang14NoSanitizeListC2ERKSt6vectorINSt7__cxx1112basic_stringIcSt11char_traitsIcESaIcEEESaIS7_EERNS_13SourceManagerE(ptr noundef nonnull align 8 dereferenceable(16) %0, ptr noundef nonnull align 8 dereferenceable(24) %1, ptr noundef nonnull align 8 dereferenceable(696) %2) unnamed_addr #0 align 2 {
  %4 = getelementptr inbounds nuw i8, ptr %2, i64 16
  %5 = load ptr, ptr %4, align 8
  %6 = getelementptr inbounds nuw i8, ptr %5, i64 8
  %7 = load ptr, ptr %6, align 8
  tail call void @_ZN5clang24SanitizerSpecialCaseList11createOrDieERKSt6vectorINSt7__cxx1112basic_stringIcSt11char_traitsIcESaIcEEESaIS7_EERN4llvm3vfs10FileSystemE(ptr dead_on_unwind nonnull writable sret(%"class.std::unique_ptr") align 8 %0, ptr noundef nonnull align 8 dereferenceable(24) %1, ptr noundef nonnull align 8 dereferenceable(12) %7) #6
  %8 = getelementptr inbounds nuw i8, ptr %0, i64 8
  store ptr %2, ptr %8, align 8
  ret void
}